target datalayout = "e-m:e-p270:32:32-p271:32:32-p272:64:64-i64:64-i128:128-f80:128-n8:16:32:64-S128"
target triple = "x86_64-pc-linux-gnu"

%struct.mbedtls_ssl_config = type { i32, i32, i8, i8, i8, i8, i8, i8, i8, i8, i8, i8, i16, i8, i8, i8, ptr, i32, ptr, ptr, ptr, ptr, ptr, ptr, ptr, ptr, ptr, ptr, ptr, ptr, ptr, ptr, ptr, ptr, ptr, ptr, ptr, i64, ptr, ptr, ptr, ptr, ptr, ptr, ptr, ptr, %struct.mbedtls_mpi, %struct.mbedtls_mpi, ptr, i64, ptr, i64, ptr, i32, i32, i32, i32, [8 x i8], i32, i32, %union.mbedtls_ssl_user_data_t, ptr, ptr }
%struct.mbedtls_mpi = type { ptr, i16, i16 }
%union.mbedtls_ssl_user_data_t = type { i64 }
%struct.mbedtls_ssl_context = type { ptr, i32, i32, i32, i32, i32, ptr, ptr, ptr, ptr, ptr, ptr, ptr, ptr, ptr, ptr, ptr, ptr, ptr, ptr, ptr, ptr, ptr, ptr, ptr, ptr, ptr, ptr, ptr, ptr, ptr, ptr, ptr, i32, i64, i64, i16, i64, i64, i64, i64, i32, i32, i8, i8, i32, i8, ptr, ptr, ptr, ptr, ptr, ptr, ptr, i32, i64, i64, [8 x i8], i16, ptr, ptr, ptr, i64, i32, i64, [12 x i8], [12 x i8], [32 x i8], i8, i8, ptr, ptr, %union.mbedtls_ssl_user_data_t }

@.str = private unnamed_addr constant [121 x i8] c"generated/home/dtcxzyw/WorkSpace/Projects/compilers/llvm-opt-benchmark/bench/lief/bench_build/mbed_src/library/ssl_tls.c\00", align 1
@.str.58 = private unnamed_addr constant [39 x i8] c"no longer retransmitting hello request\00", align 1
@.str.63 = private unnamed_addr constant [32 x i8] c"mbedtls_ssl_write_handshake_msg\00", align 1
@.str.155 = private unnamed_addr constant [23 x i8] c"=> write hello request\00", align 1
@.str.156 = private unnamed_addr constant [23 x i8] c"<= write hello request\00", align 1

; Function Attrs: inlinehint nounwind uwtable
define internal i32 @mbedtls_ssl_write_handshake_msg(ptr noundef %0) #3 {
  %2 = alloca ptr, align 8
  store ptr %0, ptr %2, align 8, !tbaa !27
  %3 = load ptr, ptr %2, align 8, !tbaa !27
  %4 = call i32 @mbedtls_ssl_write_handshake_msg_ext(ptr noundef %3, i32 noundef 1, i32 noundef 1)
  ret i32 %4
}

; Function Attrs: nounwind uwtable
define internal i32 @ssl_write_hello_request(ptr noundef %0) #0 {
  %2 = alloca i32, align 4
  %3 = alloca ptr, align 8
  %4 = alloca i32, align 4
  %5 = alloca i32, align 4
  store ptr %0, ptr %3, align 8, !tbaa !27
  call void @llvm.lifetime.start.p0(i64 4, ptr %4) #11
  store i32 -110, ptr %4, align 4, !tbaa !10
  %6 = load ptr, ptr %3, align 8, !tbaa !27
  call void (ptr, i32, ptr, i32, ptr, ...) @mbedtls_debug_print_msg(ptr noundef %6, i32 noundef 2, ptr noundef @.str, i32 noundef 4632, ptr noundef @.str.155)
  %7 = load ptr, ptr %3, align 8, !tbaa !27
  %8 = getelementptr inbounds nuw %struct.mbedtls_ssl_context, ptr %7, i32 0, i32 55
  store i64 4, ptr %8, align 8, !tbaa !136
  %9 = load ptr, ptr %3, align 8, !tbaa !27
  %10 = getelementptr inbounds nuw %struct.mbedtls_ssl_context, ptr %9, i32 0, i32 54
  store i32 22, ptr %10, align 8, !tbaa !135
  %11 = load ptr, ptr %3, align 8, !tbaa !27
  %12 = getelementptr inbounds nuw %struct.mbedtls_ssl_context, ptr %11, i32 0, i32 53
  %13 = load ptr, ptr %12, align 8, !tbaa !102
  %14 = getelementptr inbounds i8, ptr %13, i64 0
  store i8 0, ptr %14, align 1, !tbaa !87
  %15 = load ptr, ptr %3, align 8, !tbaa !27
  %16 = call i32 @mbedtls_ssl_write_handshake_msg(ptr noundef %15)
  store i32 %16, ptr %4, align 4, !tbaa !10
  %17 = icmp ne i32 %16, 0
  br i1 %17, label %18, label %22

18:                                               ; preds = %1
  %19 = load ptr, ptr %3, align 8, !tbaa !27
  %20 = load i32, ptr %4, align 4, !tbaa !10
  call void @mbedtls_debug_print_ret(ptr noundef %19, i32 noundef 1, ptr noundef @.str, i32 noundef 4639, ptr noundef @.str.63, i32 noundef %20)
  %21 = load i32, ptr %4, align 4, !tbaa !10
  store i32 %21, ptr %2, align 4
  store i32 1, ptr %5, align 4
  br label %24

22:                                               ; preds = %1
  %23 = load ptr, ptr %3, align 8, !tbaa !27
  call void (ptr, i32, ptr, i32, ptr, ...) @mbedtls_debug_print_msg(ptr noundef %23, i32 noundef 2, ptr noundef @.str, i32 noundef 4643, ptr noundef @.str.156)
  store i32 0, ptr %2, align 4
  store i32 1, ptr %5, align 4
  br label %24

24:                                               ; preds = %22, %18
  call void @llvm.lifetime.end.p0(i64 4, ptr %4) #11
  %25 = load i32, ptr %2, align 4
  ret i32 %25
}

; Function Attrs: nounwind uwtable
define hidden i32 @mbedtls_ssl_resend_hello_request(ptr noundef %0) #0 {
  %2 = alloca i32, align 4
  %3 = alloca ptr, align 8
  %4 = alloca i32, align 4
  %5 = alloca i8, align 1
  %6 = alloca i32, align 4
  store ptr %0, ptr %3, align 8, !tbaa !27
  %7 = load ptr, ptr %3, align 8, !tbaa !27
  %8 = getelementptr inbounds nuw %struct.mbedtls_ssl_context, ptr %7, i32 0, i32 0
  %9 = load ptr, ptr %8, align 8, !tbaa !30
  %10 = getelementptr inbounds nuw %struct.mbedtls_ssl_config, ptr %9, i32 0, i32 56
  %11 = load i32, ptr %10, align 4, !tbaa !236
  %12 = icmp slt i32 %11, 0
  br i1 %12, label %13, label %48

13:                                               ; preds = %1
  call void @llvm.lifetime.start.p0(i64 4, ptr %4) #11
  %14 = load ptr, ptr %3, align 8, !tbaa !27
  %15 = getelementptr inbounds nuw %struct.mbedtls_ssl_context, ptr %14, i32 0, i32 0
  %16 = load ptr, ptr %15, align 8, !tbaa !30
  %17 = getelementptr inbounds nuw %struct.mbedtls_ssl_config, ptr %16, i32 0, i32 55
  %18 = load i32, ptr %17, align 8, !tbaa !155
  %19 = load ptr, ptr %3, align 8, !tbaa !27
  %20 = getelementptr inbounds nuw %struct.mbedtls_ssl_context, ptr %19, i32 0, i32 0
  %21 = load ptr, ptr %20, align 8, !tbaa !30
  %22 = getelementptr inbounds nuw %struct.mbedtls_ssl_config, ptr %21, i32 0, i32 54
  %23 = load i32, ptr %22, align 4, !tbaa !154
  %24 = udiv i32 %18, %23
  %25 = add i32 %24, 1
  store i32 %25, ptr %4, align 4, !tbaa !10
  call void @llvm.lifetime.start.p0(i64 1, ptr %5) #11
  store i8 1, ptr %5, align 1, !tbaa !87
  br label %26

26:                                               ; preds = %29, %13
  %27 = load i32, ptr %4, align 4, !tbaa !10
  %28 = icmp ne i32 %27, 0
  br i1 %28, label %29, label %34

29:                                               ; preds = %26
  %30 = load i8, ptr %5, align 1, !tbaa !87
  %31 = add i8 %30, 1
  store i8 %31, ptr %5, align 1, !tbaa !87
  %32 = load i32, ptr %4, align 4, !tbaa !10
  %33 = lshr i32 %32, 1
  store i32 %33, ptr %4, align 4, !tbaa !10
  br label %26, !llvm.loop !301

34:                                               ; preds = %26
  %35 = load ptr, ptr %3, align 8, !tbaa !27
  %36 = getelementptr inbounds nuw %struct.mbedtls_ssl_context, ptr %35, i32 0, i32 3
  %37 = load i32, ptr %36, align 8, !tbaa !142
  %38 = add nsw i32 %37, 1
  store i32 %38, ptr %36, align 8, !tbaa !142
  %39 = load i8, ptr %5, align 1, !tbaa !87
  %40 = zext i8 %39 to i32
  %41 = icmp sgt i32 %38, %40
  br i1 %41, label %42, label %44

42:                                               ; preds = %34
  %43 = load ptr, ptr %3, align 8, !tbaa !27
  call void (ptr, i32, ptr, i32, ptr, ...) @mbedtls_debug_print_msg(ptr noundef %43, i32 noundef 2, ptr noundef @.str, i32 noundef 7497, ptr noundef @.str.58)
  store i32 0, ptr %2, align 4
  store i32 1, ptr %6, align 4
  br label %45

44:                                               ; preds = %34
  store i32 0, ptr %6, align 4
  br label %45

45:                                               ; preds = %44, %42
  call void @llvm.lifetime.end.p0(i64 1, ptr %5) #11
  call void @llvm.lifetime.end.p0(i64 4, ptr %4) #11
  %46 = load i32, ptr %6, align 4
  switch i32 %46, label %53 [
    i32 0, label %47
    i32 1, label %51
  ]

47:                                               ; preds = %45
  br label %48

48:                                               ; preds = %47, %1
  %49 = load ptr, ptr %3, align 8, !tbaa !27
  %50 = call i32 @ssl_write_hello_request(ptr noundef %49)
  store i32 %50, ptr %2, align 4
  br label %51

51:                                               ; preds = %48, %45
  %52 = load i32, ptr %2, align 4
  ret i32 %52

53:                                               ; preds = %45
  unreachable
}