; Function Attrs: nounwind uwtable
define hidden i32 @mbedtls_ssl_resend_hello_request(ptr noundef %0) local_unnamed_addr #1 {
  %2 = load ptr, ptr %0, align 8, !tbaa !23
  %3 = getelementptr inbounds nuw i8, ptr %2, i64 348
  %4 = load i32, ptr %3, align 4, !tbaa !201
  %5 = icmp slt i32 %4, 0
  br i1 %5, label %._crit_edge, label %.thread

._crit_edge:                                      ; preds = %1
  %6 = getelementptr inbounds nuw i8, ptr %2, i64 344
  %7 = load i32, ptr %6, align 8, !tbaa !133
  %8 = getelementptr inbounds nuw i8, ptr %2, i64 340
  %9 = load i32, ptr %8, align 4, !tbaa !132
  %10 = udiv i32 %7, %9
  %11 = add i32 %10, 1
  %.not16 = icmp eq i32 %11, 0
  %12 = tail call range(i32 0, 33) i32 @llvm.ctlz.i32(i32 %11, i1 true)
  %13 = sub nuw nsw i32 33, %12
  %.011.lcssa = select i1 %.not16, i32 1, i32 %13
  %14 = getelementptr inbounds nuw i8, ptr %0, i64 16
  %15 = load i32, ptr %14, align 8, !tbaa !124
  %16 = add nsw i32 %15, 1
  store i32 %16, ptr %14, align 8, !tbaa !124
  %.not14.not = icmp slt i32 %15, %.011.lcssa
  br i1 %.not14.not, label %.thread, label %17

17:                                               ; preds = %._crit_edge
  tail call void (ptr, i32, ptr, i32, ptr, ...) @mbedtls_debug_print_msg(ptr noundef nonnull %0, i32 noundef 2, ptr noundef nonnull @.str, i32 noundef 7497, ptr noundef nonnull @.str.58) #26
  br label %ssl_write_hello_request.exit

.thread:                                          ; preds = %._crit_edge, %1
  tail call void (ptr, i32, ptr, i32, ptr, ...) @mbedtls_debug_print_msg(ptr noundef nonnull %0, i32 noundef 2, ptr noundef nonnull @.str, i32 noundef 4632, ptr noundef nonnull @.str.155) #26
  %18 = getelementptr inbounds nuw i8, ptr %0, i64 400
  store i64 4, ptr %18, align 8, !tbaa !227
  %19 = getelementptr inbounds nuw i8, ptr %0, i64 392
  store i32 22, ptr %19, align 8, !tbaa !119
  %20 = getelementptr inbounds nuw i8, ptr %0, i64 384
  %21 = load ptr, ptr %20, align 8, !tbaa !228
  store i8 0, ptr %21, align 1, !tbaa !80
  %22 = tail call i32 @mbedtls_ssl_write_handshake_msg_ext(ptr noundef nonnull %0, i32 noundef 1, i32 noundef 1) #26
  %.not.i = icmp eq i32 %22, 0
  br i1 %.not.i, label %24, label %23

23:                                               ; preds = %.thread
  tail call void @mbedtls_debug_print_ret(ptr noundef nonnull %0, i32 noundef 1, ptr noundef nonnull @.str, i32 noundef 4639, ptr noundef nonnull @.str.63, i32 noundef %22) #26
  br label %ssl_write_hello_request.exit

24:                                               ; preds = %.thread
  tail call void (ptr, i32, ptr, i32, ptr, ...) @mbedtls_debug_print_msg(ptr noundef nonnull %0, i32 noundef 2, ptr noundef nonnull @.str, i32 noundef 4643, ptr noundef nonnull @.str.156) #26
  br label %ssl_write_hello_request.exit

ssl_write_hello_request.exit:                     ; preds = %24, %23, %17
  %.1 = phi i32 [ 0, %17 ], [ %22, %23 ], [ 0, %24 ]
  ret i32 %.1
}